; Function Attrs: mustprogress nounwind uwtable
define internal void @_ZN4node12_GLOBAL__N_110SignalWrapD0Ev(ptr noundef nonnull align 8 dereferenceable(241) %this) unnamed_addr #3 align 2 {
entry:
  store ptr getelementptr inbounds ({ [22 x ptr] }, ptr @_ZTVN4node10HandleWrapE, i64 0, i32 0, i64 2), ptr %this, align 8
  %handle_wrap_queue_.i.i = getelementptr inbounds i8, ptr %this, i64 64
  %next_.i.i.i.i = getelementptr inbounds i8, ptr %this, i64 72
  %0 = load ptr, ptr %next_.i.i.i.i, align 8
  %1 = load ptr, ptr %handle_wrap_queue_.i.i, align 8
  %next_2.i.i.i.i = getelementptr inbounds i8, ptr %1, i64 8
  store ptr %0, ptr %next_2.i.i.i.i, align 8
  %2 = load ptr, ptr %handle_wrap_queue_.i.i, align 8
  store ptr %2, ptr %0, align 8
  store ptr %handle_wrap_queue_.i.i, ptr %handle_wrap_queue_.i.i, align 8
  store ptr %handle_wrap_queue_.i.i, ptr %next_.i.i.i.i, align 8
  tail call void @_ZN4node9AsyncWrapD2Ev(ptr noundef nonnull align 8 dereferenceable(56) %this) #16
  tail call void @_ZdlPv(ptr noundef nonnull %this) #19
  ret void
}